; Function Attrs: nounwind uwtable
define internal void @ch_on_txp_ack_tx(ptr noundef %0, i32 noundef %1, ptr noundef captures(none) %2) #0 {
  %.not = icmp eq i32 %1, 2
  br i1 %.not, label %4, label %15

4:                                                ; preds = %3
  %5 = getelementptr inbounds nuw i8, ptr %2, i64 1568
  %6 = load i64, ptr %5, align 8
  %7 = and i64 %6, 17179869184
  %.not5 = icmp eq i64 %7, 0
  br i1 %.not5, label %15, label %8

8:                                                ; preds = %4
  %9 = getelementptr inbounds nuw i8, ptr %2, i64 1560
  %10 = load i64, ptr %9, align 8, !tbaa !202
  %11 = tail call i32 @ossl_quic_frame_ack_contains_pn(ptr noundef %0, i64 noundef %10) #15
  %.not6 = icmp eq i32 %11, 0
  br i1 %.not6, label %15, label %12

12:                                               ; preds = %8
  %13 = load i64, ptr %5, align 8
  %14 = or i64 %13, 34359738368
  store i64 %14, ptr %5, align 8
  br label %15

15:                                               ; preds = %3, %4, %8, %12
  ret void
}